; Function Attrs: mustprogress uwtable
define noundef zeroext i1 @_ZNK32pxrInternal_v0_24__pxrReserved__16UsdGeomXformable21_GetXformOpOrderValueEPNS_7VtArrayINS_7TfTokenEEE(ptr noundef nonnull align 8 dereferenceable(24) %0, ptr noundef %1) local_unnamed_addr #0 align 2 personality ptr @__gxx_personality_v0 {
  %3 = alloca %"class.pxrInternal_v0_24__pxrReserved__::UsdAttribute", align 8
  call void @_ZNK32pxrInternal_v0_24__pxrReserved__16UsdGeomXformable19GetXformOpOrderAttrEv(ptr dead_on_unwind nonnull writable sret(%"class.pxrInternal_v0_24__pxrReserved__::UsdAttribute") align 8 %3, ptr noundef nonnull align 8 dereferenceable(24) %0)
  %4 = load i32, ptr %3, align 8
  switch i32 %4, label %_ZNK32pxrInternal_v0_24__pxrReserved__12UsdAttribute3GetINS_7VtArrayINS_7TfTokenEEEEEbPT_NS_11UsdTimeCodeE.exit [
    i32 4, label %5
    i32 3, label %5
    i32 1, label %5
  ]

5:                                                ; preds = %2, %2, %2
  %6 = getelementptr inbounds nuw i8, ptr %3, i64 8
  %7 = load ptr, ptr %6, align 8
  %.not.i.i.i = icmp eq ptr %7, null
  br i1 %.not.i.i.i, label %_ZNK32pxrInternal_v0_24__pxrReserved__12UsdAttribute3GetINS_7VtArrayINS_7TfTokenEEEEEbPT_NS_11UsdTimeCodeE.exit, label %_ZNK32pxrInternal_v0_24__pxrReserved__18Usd_PrimDataHandlecvbEv.exit.i.i

_ZNK32pxrInternal_v0_24__pxrReserved__18Usd_PrimDataHandlecvbEv.exit.i.i: ; preds = %5
  %8 = getelementptr inbounds nuw i8, ptr %7, i64 56
  %9 = load i64, ptr %8, align 8
  %10 = and i64 %9, 2048
  %.not3.i.i.i = icmp eq i64 %10, 0
  br i1 %.not3.i.i.i, label %11, label %_ZNK32pxrInternal_v0_24__pxrReserved__12UsdAttribute3GetINS_7VtArrayINS_7TfTokenEEEEEbPT_NS_11UsdTimeCodeE.exit

11:                                               ; preds = %_ZNK32pxrInternal_v0_24__pxrReserved__18Usd_PrimDataHandlecvbEv.exit.i.i
  %12 = icmp eq i32 %4, 1
  br i1 %12, label %_ZNK32pxrInternal_v0_24__pxrReserved__9UsdObjectcvbEv.exit.thread8, label %13

13:                                               ; preds = %11
  %14 = invoke noundef i32 @_ZNK32pxrInternal_v0_24__pxrReserved__9UsdObject20_GetDefiningSpecTypeEv(ptr noundef nonnull align 8 dereferenceable(32) %3)
          to label %.noexc unwind label %21

.noexc:                                           ; preds = %13
  %15 = load i32, ptr %3, align 8
  %16 = icmp eq i32 %15, 3
  %17 = icmp eq i32 %14, 1
  %or.cond.i.i = and i1 %17, %16
  br i1 %or.cond.i.i, label %_ZNK32pxrInternal_v0_24__pxrReserved__9UsdObjectcvbEv.exit.thread8, label %_ZNK32pxrInternal_v0_24__pxrReserved__9UsdObjectcvbEv.exit

_ZNK32pxrInternal_v0_24__pxrReserved__9UsdObjectcvbEv.exit: ; preds = %.noexc
  %18 = icmp eq i32 %15, 4
  %19 = icmp eq i32 %14, 8
  %20 = and i1 %19, %18
  br i1 %20, label %_ZNK32pxrInternal_v0_24__pxrReserved__9UsdObjectcvbEv.exit.thread8, label %_ZNK32pxrInternal_v0_24__pxrReserved__12UsdAttribute3GetINS_7VtArrayINS_7TfTokenEEEEEbPT_NS_11UsdTimeCodeE.exit

21:                                               ; preds = %_ZNK32pxrInternal_v0_24__pxrReserved__9UsdObjectcvbEv.exit.thread8, %13
  %22 = landingpad { ptr, i32 }
          cleanup
  call void @_ZN32pxrInternal_v0_24__pxrReserved__12UsdAttributeD2Ev(ptr noundef nonnull align 8 dereferenceable(32) %3) #20
  resume { ptr, i32 } %22

_ZNK32pxrInternal_v0_24__pxrReserved__9UsdObjectcvbEv.exit.thread8: ; preds = %.noexc, %11, %_ZNK32pxrInternal_v0_24__pxrReserved__9UsdObjectcvbEv.exit
  %23 = invoke noundef zeroext i1 @_ZNK32pxrInternal_v0_24__pxrReserved__12UsdAttribute4_GetINS_7VtArrayINS_7TfTokenEEEEEbPT_NS_11UsdTimeCodeE(ptr noundef nonnull align 8 dereferenceable(32) %3, ptr noundef %1, double 0x7FF8000000000000)
          to label %_ZNK32pxrInternal_v0_24__pxrReserved__12UsdAttribute3GetINS_7VtArrayINS_7TfTokenEEEEEbPT_NS_11UsdTimeCodeE.exit unwind label %21

_ZNK32pxrInternal_v0_24__pxrReserved__12UsdAttribute3GetINS_7VtArrayINS_7TfTokenEEEEEbPT_NS_11UsdTimeCodeE.exit: ; preds = %5, %2, %_ZNK32pxrInternal_v0_24__pxrReserved__18Usd_PrimDataHandlecvbEv.exit.i.i, %_ZNK32pxrInternal_v0_24__pxrReserved__9UsdObjectcvbEv.exit.thread8, %_ZNK32pxrInternal_v0_24__pxrReserved__9UsdObjectcvbEv.exit
  %.0.i.i6 = phi i1 [ false, %_ZNK32pxrInternal_v0_24__pxrReserved__9UsdObjectcvbEv.exit ], [ true, %_ZNK32pxrInternal_v0_24__pxrReserved__9UsdObjectcvbEv.exit.thread8 ], [ false, %_ZNK32pxrInternal_v0_24__pxrReserved__18Usd_PrimDataHandlecvbEv.exit.i.i ], [ false, %2 ], [ false, %5 ]
  %24 = getelementptr inbounds nuw i8, ptr %3, i64 24
  %25 = load ptr, ptr %24, align 8
  %26 = ptrtoint ptr %25 to i64
  %27 = and i64 %26, 7
  %.not.i.i.i.i.i = icmp eq i64 %27, 0
  br i1 %.not.i.i.i.i.i, label %_ZN32pxrInternal_v0_24__pxrReserved__7TfTokenD2Ev.exit.i.i.i, label %28

28:                                               ; preds = %_ZNK32pxrInternal_v0_24__pxrReserved__12UsdAttribute3GetINS_7VtArrayINS_7TfTokenEEEEEbPT_NS_11UsdTimeCodeE.exit
  %29 = and i64 %26, -8
  %30 = inttoptr i64 %29 to ptr
  %31 = atomicrmw sub ptr %30, i32 2 release, align 4
  br label %_ZN32pxrInternal_v0_24__pxrReserved__7TfTokenD2Ev.exit.i.i.i

_ZN32pxrInternal_v0_24__pxrReserved__7TfTokenD2Ev.exit.i.i.i: ; preds = %28, %_ZNK32pxrInternal_v0_24__pxrReserved__12UsdAttribute3GetINS_7VtArrayINS_7TfTokenEEEEEbPT_NS_11UsdTimeCodeE.exit
  %32 = getelementptr inbounds nuw i8, ptr %3, i64 16
  %33 = load i32, ptr %32, align 8
  %.not.i.i1.i.i.i = icmp eq i32 %33, 0
  br i1 %.not.i.i1.i.i.i, label %_ZN32pxrInternal_v0_24__pxrReserved__7SdfPathD2Ev.exit.i.i.i, label %34

34:                                               ; preds = %_ZN32pxrInternal_v0_24__pxrReserved__7TfTokenD2Ev.exit.i.i.i
  %35 = and i32 %33, 255
  %36 = lshr i32 %33, 8
  %37 = zext nneg i32 %35 to i64
  %38 = getelementptr inbounds [257 x ptr], ptr @_ZN32pxrInternal_v0_24__pxrReserved__8Sdf_PoolINS_15Sdf_PathPrimTagELj24ELj8ELj16384EE13_regionStartsE, i64 0, i64 %37
  %39 = load ptr, ptr %38, align 8
  %40 = mul nuw nsw i32 %36, 24
  %41 = zext nneg i32 %40 to i64
  %42 = getelementptr inbounds i8, ptr %39, i64 %41
  %43 = getelementptr inbounds nuw i8, ptr %42, i64 8
  %44 = atomicrmw sub ptr %43, i32 1 seq_cst, align 4
  %45 = and i32 %44, 2147483647
  %46 = icmp eq i32 %45, 1
  br i1 %46, label %47, label %_ZN32pxrInternal_v0_24__pxrReserved__7SdfPathD2Ev.exit.i.i.i

47:                                               ; preds = %34
  invoke void @_ZNK32pxrInternal_v0_24__pxrReserved__12Sdf_PathNode8_DestroyEv(ptr noundef nonnull align 8 dereferenceable(16) %42)
          to label %_ZN32pxrInternal_v0_24__pxrReserved__7SdfPathD2Ev.exit.i.i.i unwind label %48

48:                                               ; preds = %47
  %49 = landingpad { ptr, i32 }
          catch ptr null
  %50 = extractvalue { ptr, i32 } %49, 0
  call void @__clang_call_terminate(ptr %50) #22
  unreachable

_ZN32pxrInternal_v0_24__pxrReserved__7SdfPathD2Ev.exit.i.i.i: ; preds = %47, %34, %_ZN32pxrInternal_v0_24__pxrReserved__7TfTokenD2Ev.exit.i.i.i
  %51 = getelementptr inbounds nuw i8, ptr %3, i64 8
  %52 = load ptr, ptr %51, align 8
  %.not.i.i.i.i.i.i = icmp eq ptr %52, null
  br i1 %.not.i.i.i.i.i.i, label %_ZN32pxrInternal_v0_24__pxrReserved__12UsdAttributeD2Ev.exit, label %53

53:                                               ; preds = %_ZN32pxrInternal_v0_24__pxrReserved__7SdfPathD2Ev.exit.i.i.i
  %54 = getelementptr inbounds nuw i8, ptr %52, i64 48
  %55 = atomicrmw sub ptr %54, i64 1 release, align 8
  %.not1.i.i.i.i.i.i = icmp eq i64 %55, 1
  br i1 %.not1.i.i.i.i.i.i, label %56, label %_ZN32pxrInternal_v0_24__pxrReserved__12UsdAttributeD2Ev.exit

56:                                               ; preds = %53
  call void @_ZN32pxrInternal_v0_24__pxrReserved__12Usd_PrimDataD1Ev(ptr noundef nonnull align 8 dereferenceable(64) %52) #20
  call void @_ZdlPvm(ptr noundef nonnull %52, i64 noundef 64) #21
  br label %_ZN32pxrInternal_v0_24__pxrReserved__12UsdAttributeD2Ev.exit

_ZN32pxrInternal_v0_24__pxrReserved__12UsdAttributeD2Ev.exit: ; preds = %_ZN32pxrInternal_v0_24__pxrReserved__7SdfPathD2Ev.exit.i.i.i, %53, %56
  ret i1 %.0.i.i6
}